target datalayout = "e-m:e-p270:32:32-p271:32:32-p272:64:64-i64:64-i128:128-f80:128-n8:16:32:64-S128"
target triple = "x86_64-pc-linux-gnu"

%struct.hmac_ctx_st = type { ptr, ptr, ptr, ptr, %union.anon }
%union.anon = type { i32 }

; Function Attrs: nounwind uwtable
define i32 @HMAC_Init_ex(ptr noundef %0, ptr noundef %1, i32 noundef %2, ptr noundef %3, ptr noundef %4) #0 {
  %6 = alloca i32, align 4
  %7 = alloca ptr, align 8
  %8 = alloca ptr, align 8
  %9 = alloca i32, align 4
  %10 = alloca ptr, align 8
  %11 = alloca ptr, align 8
  %12 = alloca i32, align 4
  %13 = alloca i32, align 4
  %14 = alloca i32, align 4
  %15 = alloca i32, align 4
  %16 = alloca [144 x i8], align 16
  %17 = alloca i32, align 4
  %18 = alloca [144 x i8], align 16
  %19 = alloca i32, align 4
  store ptr %0, ptr %7, align 8, !tbaa !3
  store ptr %1, ptr %8, align 8, !tbaa !8
  store i32 %2, ptr %9, align 4, !tbaa !9
  store ptr %3, ptr %10, align 8, !tbaa !11
  store ptr %4, ptr %11, align 8, !tbaa !13
  call void @llvm.lifetime.start.p0(i64 4, ptr %12) #6
  store i32 0, ptr %12, align 4, !tbaa !9
  call void @llvm.lifetime.start.p0(i64 4, ptr %13) #6
  store i32 0, ptr %13, align 4, !tbaa !9
  call void @llvm.lifetime.start.p0(i64 4, ptr %14) #6
  call void @llvm.lifetime.start.p0(i64 4, ptr %15) #6
  call void @llvm.lifetime.start.p0(i64 144, ptr %16) #6
  call void @llvm.lifetime.start.p0(i64 4, ptr %17) #6
  call void @llvm.lifetime.start.p0(i64 144, ptr %18) #6
  %20 = load ptr, ptr %10, align 8, !tbaa !11
  %21 = icmp ne ptr %20, null
  br i1 %21, label %22, label %35

22:                                               ; preds = %5
  %23 = load ptr, ptr %10, align 8, !tbaa !11
  %24 = load ptr, ptr %7, align 8, !tbaa !3
  %25 = getelementptr inbounds nuw %struct.hmac_ctx_st, ptr %24, i32 0, i32 0
  %26 = load ptr, ptr %25, align 8, !tbaa !15
  %27 = icmp ne ptr %23, %26
  br i1 %27, label %28, label %35

28:                                               ; preds = %22
  %29 = load ptr, ptr %8, align 8, !tbaa !8
  %30 = icmp eq ptr %29, null
  br i1 %30, label %34, label %31

31:                                               ; preds = %28
  %32 = load i32, ptr %9, align 4, !tbaa !9
  %33 = icmp slt i32 %32, 0
  br i1 %33, label %34, label %35

34:                                               ; preds = %31, %28
  store i32 0, ptr %6, align 4
  store i32 1, ptr %19, align 4
  br label %226

35:                                               ; preds = %31, %22, %5
  %36 = load ptr, ptr %10, align 8, !tbaa !11
  %37 = icmp ne ptr %36, null
  br i1 %37, label %38, label %42

38:                                               ; preds = %35
  %39 = load ptr, ptr %10, align 8, !tbaa !11
  %40 = load ptr, ptr %7, align 8, !tbaa !3
  %41 = getelementptr inbounds nuw %struct.hmac_ctx_st, ptr %40, i32 0, i32 0
  store ptr %39, ptr %41, align 8, !tbaa !15
  br label %53

42:                                               ; preds = %35
  %43 = load ptr, ptr %7, align 8, !tbaa !3
  %44 = getelementptr inbounds nuw %struct.hmac_ctx_st, ptr %43, i32 0, i32 0
  %45 = load ptr, ptr %44, align 8, !tbaa !15
  %46 = icmp ne ptr %45, null
  br i1 %46, label %47, label %51

47:                                               ; preds = %42
  %48 = load ptr, ptr %7, align 8, !tbaa !3
  %49 = getelementptr inbounds nuw %struct.hmac_ctx_st, ptr %48, i32 0, i32 0
  %50 = load ptr, ptr %49, align 8, !tbaa !15
  store ptr %50, ptr %10, align 8, !tbaa !11
  br label %52

51:                                               ; preds = %42
  store i32 0, ptr %6, align 4
  store i32 1, ptr %19, align 4
  br label %226

52:                                               ; preds = %47
  br label %53

53:                                               ; preds = %52, %38
  %54 = load ptr, ptr %10, align 8, !tbaa !11
  %55 = call i32 @EVP_MD_xof(ptr noundef %54)
  %56 = icmp ne i32 %55, 0
  br i1 %56, label %57, label %58

57:                                               ; preds = %53
  store i32 0, ptr %6, align 4
  store i32 1, ptr %19, align 4
  br label %226

58:                                               ; preds = %53
  %59 = load ptr, ptr %8, align 8, !tbaa !8
  %60 = icmp ne ptr %59, null
  br i1 %60, label %61, label %207

61:                                               ; preds = %58
  store i32 1, ptr %13, align 4, !tbaa !9
  %62 = load ptr, ptr %10, align 8, !tbaa !11
  %63 = call i32 @EVP_MD_get_block_size(ptr noundef %62)
  store i32 %63, ptr %15, align 4, !tbaa !9
  %64 = load i32, ptr %15, align 4, !tbaa !9
  %65 = icmp sle i32 %64, 144
  %66 = zext i1 %65 to i32
  %67 = icmp ne i32 %66, 0
  %68 = xor i1 %67, true
  %69 = xor i1 %68, true
  %70 = zext i1 %69 to i32
  %71 = sext i32 %70 to i64
  %72 = call i64 @llvm.expect.i64(i64 %71, i64 1)
  %73 = icmp ne i64 %72, 0
  br i1 %73, label %75, label %74

74:                                               ; preds = %61
  store i32 0, ptr %6, align 4
  store i32 1, ptr %19, align 4
  br label %226

75:                                               ; preds = %61
  %76 = load i32, ptr %15, align 4, !tbaa !9
  %77 = icmp slt i32 %76, 0
  br i1 %77, label %78, label %79

78:                                               ; preds = %75
  store i32 0, ptr %6, align 4
  store i32 1, ptr %19, align 4
  br label %226

79:                                               ; preds = %75
  %80 = load i32, ptr %15, align 4, !tbaa !9
  %81 = load i32, ptr %9, align 4, !tbaa !9
  %82 = icmp slt i32 %80, %81
  br i1 %82, label %83, label %109

83:                                               ; preds = %79
  %84 = load ptr, ptr %7, align 8, !tbaa !3
  %85 = getelementptr inbounds nuw %struct.hmac_ctx_st, ptr %84, i32 0, i32 1
  %86 = load ptr, ptr %85, align 8, !tbaa !18
  %87 = load ptr, ptr %10, align 8, !tbaa !11
  %88 = load ptr, ptr %11, align 8, !tbaa !13
  %89 = call i32 @EVP_DigestInit_ex(ptr noundef %86, ptr noundef %87, ptr noundef %88)
  %90 = icmp ne i32 %89, 0
  br i1 %90, label %91, label %107

91:                                               ; preds = %83
  %92 = load ptr, ptr %7, align 8, !tbaa !3
  %93 = getelementptr inbounds nuw %struct.hmac_ctx_st, ptr %92, i32 0, i32 1
  %94 = load ptr, ptr %93, align 8, !tbaa !18
  %95 = load ptr, ptr %8, align 8, !tbaa !8
  %96 = load i32, ptr %9, align 4, !tbaa !9
  %97 = sext i32 %96 to i64
  %98 = call i32 @EVP_DigestUpdate(ptr noundef %94, ptr noundef %95, i64 noundef %97)
  %99 = icmp ne i32 %98, 0
  br i1 %99, label %100, label %107

100:                                              ; preds = %91
  %101 = load ptr, ptr %7, align 8, !tbaa !3
  %102 = getelementptr inbounds nuw %struct.hmac_ctx_st, ptr %101, i32 0, i32 1
  %103 = load ptr, ptr %102, align 8, !tbaa !18
  %104 = getelementptr inbounds [144 x i8], ptr %18, i64 0, i64 0
  %105 = call i32 @EVP_DigestFinal_ex(ptr noundef %103, ptr noundef %104, ptr noundef %17)
  %106 = icmp ne i32 %105, 0
  br i1 %106, label %108, label %107

107:                                              ; preds = %100, %91, %83
  store i32 0, ptr %6, align 4
  store i32 1, ptr %19, align 4
  br label %226

108:                                              ; preds = %100
  br label %122

109:                                              ; preds = %79
  %110 = load i32, ptr %9, align 4, !tbaa !9
  %111 = icmp slt i32 %110, 0
  br i1 %111, label %115, label %112

112:                                              ; preds = %109
  %113 = load i32, ptr %9, align 4, !tbaa !9
  %114 = icmp sgt i32 %113, 144
  br i1 %114, label %115, label %116

115:                                              ; preds = %112, %109
  store i32 0, ptr %6, align 4
  store i32 1, ptr %19, align 4
  br label %226

116:                                              ; preds = %112
  %117 = getelementptr inbounds [144 x i8], ptr %18, i64 0, i64 0
  %118 = load ptr, ptr %8, align 8, !tbaa !8
  %119 = load i32, ptr %9, align 4, !tbaa !9
  %120 = sext i32 %119 to i64
  call void @llvm.memcpy.p0.p0.i64(ptr align 16 %117, ptr align 1 %118, i64 %120, i1 false)
  %121 = load i32, ptr %9, align 4, !tbaa !9
  store i32 %121, ptr %17, align 4, !tbaa !9
  br label %122

122:                                              ; preds = %116, %108
  %123 = load i32, ptr %17, align 4, !tbaa !9
  %124 = icmp ne i32 %123, 144
  br i1 %124, label %125, label %132

125:                                              ; preds = %122
  %126 = load i32, ptr %17, align 4, !tbaa !9
  %127 = zext i32 %126 to i64
  %128 = getelementptr inbounds nuw [144 x i8], ptr %18, i64 0, i64 %127
  %129 = load i32, ptr %17, align 4, !tbaa !9
  %130 = sub i32 144, %129
  %131 = zext i32 %130 to i64
  call void @llvm.memset.p0.i64(ptr align 1 %128, i8 0, i64 %131, i1 false)
  br label %132

132:                                              ; preds = %125, %122
  store i32 0, ptr %14, align 4, !tbaa !9
  br label %133

133:                                              ; preds = %147, %132
  %134 = load i32, ptr %14, align 4, !tbaa !9
  %135 = icmp slt i32 %134, 144
  br i1 %135, label %136, label %150

136:                                              ; preds = %133
  %137 = load i32, ptr %14, align 4, !tbaa !9
  %138 = sext i32 %137 to i64
  %139 = getelementptr inbounds [144 x i8], ptr %18, i64 0, i64 %138
  %140 = load i8, ptr %139, align 1, !tbaa !19
  %141 = zext i8 %140 to i32
  %142 = xor i32 54, %141
  %143 = trunc i32 %142 to i8
  %144 = load i32, ptr %14, align 4, !tbaa !9
  %145 = sext i32 %144 to i64
  %146 = getelementptr inbounds [144 x i8], ptr %16, i64 0, i64 %145
  store i8 %143, ptr %146, align 1, !tbaa !19
  br label %147

147:                                              ; preds = %136
  %148 = load i32, ptr %14, align 4, !tbaa !9
  %149 = add nsw i32 %148, 1
  store i32 %149, ptr %14, align 4, !tbaa !9
  br label %133, !llvm.loop !20

150:                                              ; preds = %133
  %151 = load ptr, ptr %7, align 8, !tbaa !3
  %152 = getelementptr inbounds nuw %struct.hmac_ctx_st, ptr %151, i32 0, i32 2
  %153 = load ptr, ptr %152, align 8, !tbaa !22
  %154 = load ptr, ptr %10, align 8, !tbaa !11
  %155 = load ptr, ptr %11, align 8, !tbaa !13
  %156 = call i32 @EVP_DigestInit_ex(ptr noundef %153, ptr noundef %154, ptr noundef %155)
  %157 = icmp ne i32 %156, 0
  br i1 %157, label %158, label %168

158:                                              ; preds = %150
  %159 = load ptr, ptr %7, align 8, !tbaa !3
  %160 = getelementptr inbounds nuw %struct.hmac_ctx_st, ptr %159, i32 0, i32 2
  %161 = load ptr, ptr %160, align 8, !tbaa !22
  %162 = getelementptr inbounds [144 x i8], ptr %16, i64 0, i64 0
  %163 = load ptr, ptr %10, align 8, !tbaa !11
  %164 = call i32 @EVP_MD_get_block_size(ptr noundef %163)
  %165 = sext i32 %164 to i64
  %166 = call i32 @EVP_DigestUpdate(ptr noundef %161, ptr noundef %162, i64 noundef %165)
  %167 = icmp ne i32 %166, 0
  br i1 %167, label %169, label %168

168:                                              ; preds = %158, %150
  br label %218

169:                                              ; preds = %158
  store i32 0, ptr %14, align 4, !tbaa !9
  br label %170

170:                                              ; preds = %184, %169
  %171 = load i32, ptr %14, align 4, !tbaa !9
  %172 = icmp slt i32 %171, 144
  br i1 %172, label %173, label %187

173:                                              ; preds = %170
  %174 = load i32, ptr %14, align 4, !tbaa !9
  %175 = sext i32 %174 to i64
  %176 = getelementptr inbounds [144 x i8], ptr %18, i64 0, i64 %175
  %177 = load i8, ptr %176, align 1, !tbaa !19
  %178 = zext i8 %177 to i32
  %179 = xor i32 92, %178
  %180 = trunc i32 %179 to i8
  %181 = load i32, ptr %14, align 4, !tbaa !9
  %182 = sext i32 %181 to i64
  %183 = getelementptr inbounds [144 x i8], ptr %16, i64 0, i64 %182
  store i8 %180, ptr %183, align 1, !tbaa !19
  br label %184

184:                                              ; preds = %173
  %185 = load i32, ptr %14, align 4, !tbaa !9
  %186 = add nsw i32 %185, 1
  store i32 %186, ptr %14, align 4, !tbaa !9
  br label %170, !llvm.loop !23

187:                                              ; preds = %170
  %188 = load ptr, ptr %7, align 8, !tbaa !3
  %189 = getelementptr inbounds nuw %struct.hmac_ctx_st, ptr %188, i32 0, i32 3
  %190 = load ptr, ptr %189, align 8, !tbaa !24
  %191 = load ptr, ptr %10, align 8, !tbaa !11
  %192 = load ptr, ptr %11, align 8, !tbaa !13
  %193 = call i32 @EVP_DigestInit_ex(ptr noundef %190, ptr noundef %191, ptr noundef %192)
  %194 = icmp ne i32 %193, 0
  br i1 %194, label %195, label %205

195:                                              ; preds = %187
  %196 = load ptr, ptr %7, align 8, !tbaa !3
  %197 = getelementptr inbounds nuw %struct.hmac_ctx_st, ptr %196, i32 0, i32 3
  %198 = load ptr, ptr %197, align 8, !tbaa !24
  %199 = getelementptr inbounds [144 x i8], ptr %16, i64 0, i64 0
  %200 = load ptr, ptr %10, align 8, !tbaa !11
  %201 = call i32 @EVP_MD_get_block_size(ptr noundef %200)
  %202 = sext i32 %201 to i64
  %203 = call i32 @EVP_DigestUpdate(ptr noundef %198, ptr noundef %199, i64 noundef %202)
  %204 = icmp ne i32 %203, 0
  br i1 %204, label %206, label %205

205:                                              ; preds = %195, %187
  br label %218

206:                                              ; preds = %195
  br label %207

207:                                              ; preds = %206, %58
  %208 = load ptr, ptr %7, align 8, !tbaa !3
  %209 = getelementptr inbounds nuw %struct.hmac_ctx_st, ptr %208, i32 0, i32 1
  %210 = load ptr, ptr %209, align 8, !tbaa !18
  %211 = load ptr, ptr %7, align 8, !tbaa !3
  %212 = getelementptr inbounds nuw %struct.hmac_ctx_st, ptr %211, i32 0, i32 2
  %213 = load ptr, ptr %212, align 8, !tbaa !22
  %214 = call i32 @EVP_MD_CTX_copy_ex(ptr noundef %210, ptr noundef %213)
  %215 = icmp ne i32 %214, 0
  br i1 %215, label %217, label %216

216:                                              ; preds = %207
  br label %218

217:                                              ; preds = %207
  store i32 1, ptr %12, align 4, !tbaa !9
  br label %218

218:                                              ; preds = %217, %216, %205, %168
  %219 = load i32, ptr %13, align 4, !tbaa !9
  %220 = icmp ne i32 %219, 0
  br i1 %220, label %221, label %224

221:                                              ; preds = %218
  %222 = getelementptr inbounds [144 x i8], ptr %18, i64 0, i64 0
  call void @OPENSSL_cleanse(ptr noundef %222, i64 noundef 144)
  %223 = getelementptr inbounds [144 x i8], ptr %16, i64 0, i64 0
  call void @OPENSSL_cleanse(ptr noundef %223, i64 noundef 144)
  br label %224

224:                                              ; preds = %221, %218
  %225 = load i32, ptr %12, align 4, !tbaa !9
  store i32 %225, ptr %6, align 4
  store i32 1, ptr %19, align 4
  br label %226

226:                                              ; preds = %224, %115, %107, %78, %74, %57, %51, %34
  call void @llvm.lifetime.end.p0(i64 144, ptr %18) #6
  call void @llvm.lifetime.end.p0(i64 4, ptr %17) #6
  call void @llvm.lifetime.end.p0(i64 144, ptr %16) #6
  call void @llvm.lifetime.end.p0(i64 4, ptr %15) #6
  call void @llvm.lifetime.end.p0(i64 4, ptr %14) #6
  call void @llvm.lifetime.end.p0(i64 4, ptr %13) #6
  call void @llvm.lifetime.end.p0(i64 4, ptr %12) #6
  %227 = load i32, ptr %6, align 4
  ret i32 %227
}