; Function Attrs: nounwind uwtable
define range(i32 0, 2) i32 @HMAC_Init_ex(ptr noundef captures(none) %0, ptr noundef %1, i32 noundef %2, ptr noundef %3, ptr noundef %4) local_unnamed_addr #0 {
  %6 = alloca [144 x i8], align 16
  %7 = alloca i32, align 4
  %8 = alloca [144 x i8], align 16
  call void @llvm.lifetime.start.p0(i64 144, ptr nonnull %6) #7
  call void @llvm.lifetime.start.p0(i64 4, ptr nonnull %7) #7
  call void @llvm.lifetime.start.p0(i64 144, ptr nonnull %8) #7
  %.not = icmp eq ptr %3, null
  %9 = load ptr, ptr %0, align 8, !tbaa !3
  br i1 %.not, label %.critedge, label %10

10:                                               ; preds = %5
  %.not67 = icmp eq ptr %3, %9
  br i1 %.not67, label %14, label %11

11:                                               ; preds = %10
  %12 = icmp eq ptr %1, null
  %13 = icmp slt i32 %2, 0
  %or.cond = or i1 %12, %13
  br i1 %or.cond, label %77, label %14

14:                                               ; preds = %10, %11
  store ptr %3, ptr %0, align 8, !tbaa !3
  br label %15

.critedge:                                        ; preds = %5
  %.not68 = icmp eq ptr %9, null
  br i1 %.not68, label %77, label %15

15:                                               ; preds = %.critedge, %14
  %.058 = phi ptr [ %3, %14 ], [ %9, %.critedge ]
  %16 = tail call i32 @EVP_MD_xof(ptr noundef nonnull %.058) #7
  %.not69 = icmp eq i32 %16, 0
  br i1 %.not69, label %17, label %77

17:                                               ; preds = %15
  %.not70 = icmp eq ptr %1, null
  br i1 %.not70, label %71, label %18

18:                                               ; preds = %17
  %19 = tail call i32 @EVP_MD_get_block_size(ptr noundef nonnull %.058) #7
  %or.cond81 = icmp ugt i32 %19, 144
  br i1 %or.cond81, label %77, label %20, !prof !10

20:                                               ; preds = %18
  %21 = icmp slt i32 %19, %2
  br i1 %21, label %22, label %33

22:                                               ; preds = %20
  %23 = getelementptr inbounds nuw i8, ptr %0, i64 8
  %24 = load ptr, ptr %23, align 8, !tbaa !11
  %25 = tail call i32 @EVP_DigestInit_ex(ptr noundef %24, ptr noundef nonnull %.058, ptr noundef %4) #7
  %.not71 = icmp eq i32 %25, 0
  br i1 %.not71, label %77, label %26

26:                                               ; preds = %22
  %27 = load ptr, ptr %23, align 8, !tbaa !11
  %28 = zext nneg i32 %2 to i64
  %29 = tail call i32 @EVP_DigestUpdate(ptr noundef %27, ptr noundef nonnull %1, i64 noundef %28) #7
  %.not72 = icmp eq i32 %29, 0
  br i1 %.not72, label %77, label %30

30:                                               ; preds = %26
  %31 = load ptr, ptr %23, align 8, !tbaa !11
  %32 = call i32 @EVP_DigestFinal_ex(ptr noundef %31, ptr noundef nonnull %8, ptr noundef nonnull %7) #7
  %.not73 = icmp eq i32 %32, 0
  br i1 %.not73, label %77, label %thread-pre-split

33:                                               ; preds = %20
  %34 = icmp slt i32 %2, 0
  br i1 %34, label %77, label %35

35:                                               ; preds = %33
  %36 = zext nneg i32 %2 to i64
  call void @llvm.memcpy.p0.p0.i64(ptr nonnull align 16 %8, ptr nonnull align 1 %1, i64 %36, i1 false)
  store i32 %2, ptr %7, align 4, !tbaa !12
  br label %37

thread-pre-split:                                 ; preds = %30
  %.pr = load i32, ptr %7, align 4, !tbaa !12
  br label %37

37:                                               ; preds = %thread-pre-split, %35
  %38 = phi i32 [ %.pr, %thread-pre-split ], [ %2, %35 ]
  %.not74 = icmp eq i32 %38, 144
  br i1 %.not74, label %.preheader93, label %39

39:                                               ; preds = %37
  %40 = zext i32 %38 to i64
  %41 = getelementptr inbounds nuw [144 x i8], ptr %8, i64 0, i64 %40
  %42 = sub i32 144, %38
  %43 = zext i32 %42 to i64
  call void @llvm.memset.p0.i64(ptr nonnull align 1 %41, i8 0, i64 %43, i1 false)
  br label %.preheader93

.preheader93:                                     ; preds = %39, %37
  br label %44

44:                                               ; preds = %.preheader93, %44
  %indvars.iv = phi i64 [ %indvars.iv.next, %44 ], [ 0, %.preheader93 ]
  %45 = getelementptr inbounds nuw [144 x i8], ptr %8, i64 0, i64 %indvars.iv
  %46 = load i8, ptr %45, align 1, !tbaa !14
  %47 = xor i8 %46, 54
  %48 = getelementptr inbounds nuw [144 x i8], ptr %6, i64 0, i64 %indvars.iv
  store i8 %47, ptr %48, align 1, !tbaa !14
  %indvars.iv.next = add nuw nsw i64 %indvars.iv, 1
  %exitcond.not = icmp eq i64 %indvars.iv.next, 144
  br i1 %exitcond.not, label %49, label %44, !llvm.loop !15

49:                                               ; preds = %44
  %50 = getelementptr inbounds nuw i8, ptr %0, i64 16
  %51 = load ptr, ptr %50, align 8, !tbaa !17
  %52 = call i32 @EVP_DigestInit_ex(ptr noundef %51, ptr noundef nonnull %.058, ptr noundef %4) #7
  %.not75 = icmp eq i32 %52, 0
  br i1 %.not75, label %.thread, label %53

53:                                               ; preds = %49
  %54 = load ptr, ptr %50, align 8, !tbaa !17
  %55 = call i32 @EVP_MD_get_block_size(ptr noundef nonnull %.058) #7
  %56 = sext i32 %55 to i64
  %57 = call i32 @EVP_DigestUpdate(ptr noundef %54, ptr noundef nonnull %6, i64 noundef %56) #7
  %.not76 = icmp eq i32 %57, 0
  br i1 %.not76, label %.thread, label %.preheader

.preheader:                                       ; preds = %53, %.preheader
  %indvars.iv89 = phi i64 [ %indvars.iv.next90, %.preheader ], [ 0, %53 ]
  %58 = getelementptr inbounds nuw [144 x i8], ptr %8, i64 0, i64 %indvars.iv89
  %59 = load i8, ptr %58, align 1, !tbaa !14
  %60 = xor i8 %59, 92
  %61 = getelementptr inbounds nuw [144 x i8], ptr %6, i64 0, i64 %indvars.iv89
  store i8 %60, ptr %61, align 1, !tbaa !14
  %indvars.iv.next90 = add nuw nsw i64 %indvars.iv89, 1
  %exitcond92.not = icmp eq i64 %indvars.iv.next90, 144
  br i1 %exitcond92.not, label %62, label %.preheader, !llvm.loop !18

62:                                               ; preds = %.preheader
  %63 = getelementptr inbounds nuw i8, ptr %0, i64 24
  %64 = load ptr, ptr %63, align 8, !tbaa !19
  %65 = call i32 @EVP_DigestInit_ex(ptr noundef %64, ptr noundef nonnull %.058, ptr noundef %4) #7
  %.not77 = icmp eq i32 %65, 0
  br i1 %.not77, label %.thread, label %66

66:                                               ; preds = %62
  %67 = load ptr, ptr %63, align 8, !tbaa !19
  %68 = call i32 @EVP_MD_get_block_size(ptr noundef nonnull %.058) #7
  %69 = sext i32 %68 to i64
  %70 = call i32 @EVP_DigestUpdate(ptr noundef %67, ptr noundef nonnull %6, i64 noundef %69) #7
  %.not78 = icmp eq i32 %70, 0
  br i1 %.not78, label %.thread, label %71

71:                                               ; preds = %17, %66
  %72 = getelementptr inbounds nuw i8, ptr %0, i64 8
  %73 = load ptr, ptr %72, align 8, !tbaa !11
  %74 = getelementptr inbounds nuw i8, ptr %0, i64 16
  %75 = load ptr, ptr %74, align 8, !tbaa !17
  %76 = call i32 @EVP_MD_CTX_copy_ex(ptr noundef %73, ptr noundef %75) #7
  %.not79 = icmp ne i32 %76, 0
  %spec.select = zext i1 %.not79 to i32
  br i1 %.not70, label %77, label %.thread

.thread:                                          ; preds = %49, %53, %62, %66, %71
  %.05785 = phi i32 [ %spec.select, %71 ], [ 0, %66 ], [ 0, %62 ], [ 0, %53 ], [ 0, %49 ]
  call void @OPENSSL_cleanse(ptr noundef nonnull %8, i64 noundef 144) #7
  call void @OPENSSL_cleanse(ptr noundef nonnull %6, i64 noundef 144) #7
  br label %77

77:                                               ; preds = %71, %.thread, %33, %22, %26, %30, %18, %15, %.critedge, %11
  %.0 = phi i32 [ 0, %11 ], [ 0, %.critedge ], [ 0, %15 ], [ 0, %18 ], [ 0, %30 ], [ 0, %26 ], [ 0, %22 ], [ 0, %33 ], [ %.05785, %.thread ], [ %spec.select, %71 ]
  call void @llvm.lifetime.end.p0(i64 144, ptr nonnull %8) #7
  call void @llvm.lifetime.end.p0(i64 4, ptr nonnull %7) #7
  call void @llvm.lifetime.end.p0(i64 144, ptr nonnull %6) #7
  ret i32 %.0
}